Certificate:
    Data:
        Version: 3 (0x2)
        Serial Number: 259 (0x103)
        Signature Algorithm: md5WithRSAEncryption
        Issuer: C=HU, ST=Hungary, L=Budapest, O=NetLock Halozatbiztonsagi Kft., OU=Tanusitvanykiadok, CN=NetLock Kozjegyzoi (Class A) Tanusitvanykiado
        Validity
            Not Before: Feb 24 23:14:47 1999 GMT
            Not After : Feb 19 23:14:47 2019 GMT
        Subject: C=HU, ST=Hungary, L=Budapest, O=NetLock Halozatbiztonsagi Kft., OU=Tanusitvanykiadok, CN=NetLock Kozjegyzoi (Class A) Tanusitvanykiado
        Subject Public Key Info:
            Public Key Algorithm: rsaEncryption
            RSA Public Key: (2048 bit)
                Modulus (2048 bit):
                    00:bc:74:8c:0f:bb:4c:f4:37:1e:a9:05:82:d8:e6:
                    e1:6c:70:ea:78:b5:6e:d1:38:44:0d:a8:83:ce:5d:
                    d2:d6:d5:81:c5:d4:4b:e7:5b:94:70:26:db:3b:9d:
                    6a:4c:62:f7:71:f3:64:d6:61:3b:3d:eb:73:a3:37:
                    d9:cf:ea:8c:92:3b:cd:f7:07:dc:66:74:97:f4:45:
                    22:dd:f4:5c:e0:bf:6d:f3:be:65:33:e4:15:3a:bf:
                    db:98:90:55:38:c4:ed:a6:55:63:0b:b0:78:04:f4:
                    e3:6e:c1:3f:8e:fc:51:78:1f:92:9e:83:c2:fe:d9:
                    b0:a9:c9:bc:5a:00:ff:a9:a8:98:74:fb:f6:2c:3e:
                    15:39:0d:b6:04:55:a8:0e:98:20:42:b3:b1:25:ad:
                    7e:9a:6f:5d:53:b1:ab:0c:fc:eb:e0:f3:7a:b3:a8:
                    b3:ff:46:f6:63:a2:d8:3a:98:7b:b6:ac:85:ff:b0:
                    25:4f:74:63:e7:13:07:a5:0a:8f:05:f7:c0:64:6f:
                    7e:a7:27:80:96:de:d4:2e:86:60:c7:6b:2b:5e:73:
                    7b:17:e7:91:3f:64:0c:d8:4b:22:34:2b:9b:32:f2:
                    48:1f:9f:a1:0a:84:7a:e2:c2:ad:97:3d:8e:d5:c1:
                    f9:56:a3:50:e9:c6:b4:fa:98:a2:ee:95:e6:2a:03:
                    8c:df
                Exponent: 65537 (0x10001)
        X509v3 extensions:
            X509v3 Key Usage: critical
                Certificate Sign, CRL Sign
            X509v3 Basic Constraints: critical
                CA:TRUE, pathlen:4
            Netscape Cert Type: 
                SSL CA, S/MIME CA, Object Signing CA
            Netscape Comment: 
                FIGYELEM! Ezen tanusitvany a NetLock Kft. Altalanos Szolgaltatasi Felteteleiben leirt eljarasok alapjan keszult. A hitelesites folyamatat a NetLock Kft. termekfelelosseg-biztositasa vedi. A digitalis alairas elfogadasanak feltetele az eloirt ellenorzesi eljaras megtetele. Az eljaras leirasa megtalalhato a NetLock Kft. Internet honlapjan a https://www.netlock.net/docs cimen vagy kerheto az ellenorzes@netlock.net e-mail cimen. IMPORTANT! The issuance and the use of this certificate is subject to the NetLock CPS available at https://www.netlock.net/docs or by e-mail at cps@netlock.net.
    Signature Algorithm: md5WithRSAEncryption
        48:24:46:f7:ba:56:6f:fa:c8:28:03:40:4e:e5:31:39:6b:26:
        6b:53:7f:db:df:df:f3:71:3d:26:c0:14:0e:c6:67:7b:23:a8:
        0c:73:dd:01:bb:c6:ca:6e:37:39:55:d5:c7:8c:56:20:0e:28:
        0a:0e:d2:2a:a4:b0:49:52:c6:38:07:fe:be:0a:09:8c:d1:98:
        cf:ca:da:14:31:a1:4f:d2:39:fc:0f:11:2c:43:c3:dd:ab:93:
        c7:55:3e:47:7c:18:1a:00:dc:f3:7b:d8:f2:7f:52:6c:20:f4:
        0b:5f:69:52:f4:ee:f8:b2:29:60:eb:e3:49:31:21:0d:d6:b5:
        10:41:e2:41:09:6c:e2:1a:9a:56:4b:77:02:f6:a0:9b:9a:27:
        87:e8:55:29:71:c2:90:9f:45:78:1a:e1:15:64:3d:d0:0e:d8:
        a0:76:9f:ae:c5:d0:2e:ea:d6:0f:56:ec:64:7f:5a:9b:14:58:
        01:27:7e:13:50:c7:6b:2a:e6:68:3c:bf:5c:a0:0a:1b:e1:0e:
        7a:e9:e2:80:c3:e9:e9:f6:fd:6c:11:9e:d0:e5:28:27:2b:54:
        32:42:14:82:75:e6:4a:f0:2b:66:75:63:8c:a2:fb:04:3e:83:
        0e:9b:36:f0:18:e4:26:20:c3:8c:f0:28:07:ad:3c:17:66:88:
        b5:fd:b6:88
SHA1 Fingerprint=AC:ED:5F:65:53:FD:25:CE:01:5F:1F:7A:48:3B:6A:74:9F:61:78:C6
-----BEGIN CERTIFICATE-----
MIIGfTCCBWWgAwIBAgICAQMwDQYJKoZIhvcNAQEEBQAwga8xCzAJBgNVBAYTAkhV
MRAwDgYDVQQIEwdIdW5nYXJ5MREwDwYDVQQHEwhCdWRhcGVzdDEnMCUGA1UEChMe
TmV0TG9jayBIYWxvemF0Yml6dG9uc2FnaSBLZnQuMRowGAYDVQQLExFUYW51c2l0
dmFueWtpYWRvazE2MDQGA1UEAxMtTmV0TG9jayBLb3pqZWd5em9pIChDbGFzcyBB
KSBUYW51c2l0dmFueWtpYWRvMB4XDTk5MDIyNDIzMTQ0N1oXDTE5MDIxOTIzMTQ0
N1owga8xCzAJBgNVBAYTAkhVMRAwDgYDVQQIEwdIdW5nYXJ5MREwDwYDVQQHEwhC
dWRhcGVzdDEnMCUGA1UEChMeTmV0TG9jayBIYWxvemF0Yml6dG9uc2FnaSBLZnQu
MRowGAYDVQQLExFUYW51c2l0dmFueWtpYWRvazE2MDQGA1UEAxMtTmV0TG9jayBL
b3pqZWd5em9pIChDbGFzcyBBKSBUYW51c2l0dmFueWtpYWRvMIIBIjANBgkqhkiG
9w0BAQEFAAOCAQ8AMIIBCgKCAQEAvHSMD7tM9DceqQWC2ObhbHDqeLVu0ThEDaiD
zl3S1tWBxdRL51uUcCbbO51qTGL3cfNk1mE7PetzozfZz+qMkjvN9wfcZnSX9EUi
3fRc4L9t875lM+QVOr/bmJBVOMTtplVjC7B4BPTjbsE/jvxReB+SnoPC/tmwqcm8
WgD/qaiYdPv2LD4VOQ22BFWoDpggQrOxJa1+mm9dU7GrDPzr4PN6s6iz/0b2Y6LY
Oph7tqyF/7AlT3Rj5xMHpQqPBffAZG9+pyeAlt7ULoZgx2srXnN7F+eRP2QM2Esi
NCubMvJIH5+hCoR64sKtlz2O1cH5VqNQ6ca0+pii7pXmKgOM3wIDAQABo4ICnzCC
ApswDgYDVR0PAQH/BAQDAgAGMBIGA1UdEwEB/wQIMAYBAf8CAQQwEQYJYIZIAYb4
QgEBBAQDAgAHMIICYAYJYIZIAYb4QgENBIICURaCAk1GSUdZRUxFTSEgRXplbiB0
YW51c2l0dmFueSBhIE5ldExvY2sgS2Z0LiBBbHRhbGFub3MgU3pvbGdhbHRhdGFz
aSBGZWx0ZXRlbGVpYmVuIGxlaXJ0IGVsamFyYXNvayBhbGFwamFuIGtlc3p1bHQu
IEEgaGl0ZWxlc2l0ZXMgZm9seWFtYXRhdCBhIE5ldExvY2sgS2Z0LiB0ZXJtZWtm
ZWxlbG9zc2VnLWJpenRvc2l0YXNhIHZlZGkuIEEgZGlnaXRhbGlzIGFsYWlyYXMg
ZWxmb2dhZGFzYW5hayBmZWx0ZXRlbGUgYXogZWxvaXJ0IGVsbGVub3J6ZXNpIGVs
amFyYXMgbWVndGV0ZWxlLiBBeiBlbGphcmFzIGxlaXJhc2EgbWVndGFsYWxoYXRv
IGEgTmV0TG9jayBLZnQuIEludGVybmV0IGhvbmxhcGphbiBhIGh0dHBzOi8vd3d3
Lm5ldGxvY2submV0L2RvY3MgY2ltZW4gdmFneSBrZXJoZXRvIGF6IGVsbGVub3J6
ZXNAbmV0bG9jay5uZXQgZS1tYWlsIGNpbWVuLiBJTVBPUlRBTlQhIFRoZSBpc3N1
YW5jZSBhbmQgdGhlIHVzZSBvZiB0aGlzIGNlcnRpZmljYXRlIGlzIHN1YmplY3Qg
dG8gdGhlIE5ldExvY2sgQ1BTIGF2YWlsYWJsZSBhdCBodHRwczovL3d3dy5uZXRs
b2NrLm5ldC9kb2NzIG9yIGJ5IGUtbWFpbCBhdCBjcHNAbmV0bG9jay5uZXQuMA0G
CSqGSIb3DQEBBAUAA4IBAQBIJEb3ulZv+sgoA0BO5TE5ayZrU3/b39/zcT0mwBQO
xmd7I6gMc90Bu8bKbjc5VdXHjFYgDigKDtIqpLBJUsY4B/6+CgmM0ZjPytoUMaFP
0jn8DxEsQ8Pdq5PHVT5HfBgaANzze9jyf1JsIPQLX2lS9O74silg6+NJMSEN1rUQ
QeJBCWziGppWS3cC9qCbmieH6FUpccKQn0V4GuEVZD3QDtigdp+uxdAu6tYPVuxk
f1qbFFgBJ34TUMdrKuZoPL9coAob4Q566eKAw+np9v1sEZ7Q5SgnK1QyQhSCdeZK
8CtmdWOMovsEPoMOmzbwGOQmIMOM8CgHrTwXZoi1/baI
-----END CERTIFICATE-----
