Certificate:
    Data:
        Version: 3 (0x2)
        Serial Number: 1116155212 (0x42872d4c)
        Signature Algorithm: sha1WithRSAEncryption
        Issuer: C=US, O=Entrust.net, OU=www.entrust.net/CPS incorp. by ref. (limits liab.), OU=(c) 1999 Entrust.net Limited, CN=Entrust.net Secure Server Certification Authority
        Validity
            Not Before: Jan  5 19:20:39 2007 GMT
            Not After : Jan  5 19:50:39 2017 GMT
        Subject: C=US, O=Entrust, Inc., OU=www.entrust.net/CPS is incorporated by reference, OU=(c) 2006 Entrust, Inc., CN=Entrust Root Certification Authority
        Subject Public Key Info:
            Public Key Algorithm: rsaEncryption
            RSA Public Key: (2048 bit)
                Modulus (2048 bit):
                    00:b6:95:b6:43:42:fa:c6:6d:2a:6f:48:df:94:4c:
                    39:57:05:ee:c3:79:11:41:68:36:ed:ec:fe:9a:01:
                    8f:a1:38:28:fc:f7:10:46:66:2e:4d:1e:1a:b1:1a:
                    4e:c6:d1:c0:95:88:b0:c9:ff:31:8b:33:03:db:b7:
                    83:7b:3e:20:84:5e:ed:b2:56:28:a7:f8:e0:b9:40:
                    71:37:c5:cb:47:0e:97:2a:68:c0:22:95:62:15:db:
                    47:d9:f5:d0:2b:ff:82:4b:c9:ad:3e:de:4c:db:90:
                    80:50:3f:09:8a:84:00:ec:30:0a:3d:18:cd:fb:fd:
                    2a:59:9a:23:95:17:2c:45:9e:1f:6e:43:79:6d:0c:
                    5c:98:fe:48:a7:c5:23:47:5c:5e:fd:6e:e7:1e:b4:
                    f6:68:45:d1:86:83:5b:a2:8a:8d:b1:e3:29:80:fe:
                    25:71:88:ad:be:bc:8f:ac:52:96:4b:aa:51:8d:e4:
                    13:31:19:e8:4e:4d:9f:db:ac:b3:6a:d5:bc:39:54:
                    71:ca:7a:7a:7f:90:dd:7d:1d:80:d9:81:bb:59:26:
                    c2:11:fe:e6:93:e2:f7:80:e4:65:fb:34:37:0e:29:
                    80:70:4d:af:38:86:2e:9e:7f:57:af:9e:17:ae:eb:
                    1c:cb:28:21:5f:b6:1c:d8:e7:a2:04:22:f9:d3:da:
                    d8:cb
                Exponent: 65537 (0x10001)
        X509v3 extensions:
            X509v3 Key Usage: critical
                Certificate Sign, CRL Sign
            X509v3 Basic Constraints: critical
                CA:TRUE
            Authority Information Access: 
                OCSP - URI:http://ocsp.entrust.net

            X509v3 CRL Distribution Points: 
                URI:http://crl.entrust.net/server1.crl

            X509v3 Certificate Policies: 
                Policy: X509v3 Any Policy
                  CPS: http://www.entrust.net/CPS

            X509v3 Subject Key Identifier: 
                68:90:E4:67:A4:A6:53:80:C7:86:66:A4:F1:F7:4B:43:FB:84:BD:6D
            X509v3 Authority Key Identifier: 
                keyid:F0:17:62:13:55:3D:B3:FF:0A:00:6B:FB:50:84:97:F3:ED:62:D0:1A

            1.2.840.113533.7.65.0: 
                0
..V7.1....
    Signature Algorithm: sha1WithRSAEncryption
        0c:b0:84:7c:2d:13:fe:9a:3d:bf:18:05:95:3d:20:48:a3:16:
        81:87:15:50:15:a4:88:8d:9f:60:d4:3a:6f:eb:2d:6e:3a:86:
        a4:a9:d2:c1:9d:89:7a:08:1c:a4:2d:b3:47:8e:0f:64:4a:6f:
        66:03:83:3f:4f:34:94:36:aa:29:6d:8b:8d:02:22:2b:8c:cd:
        77:a5:70:95:86:91:d1:b6:bf:52:be:33:6a:6b:99:f9:6f:e1:
        12:be:04:cb:33:bf:f5:12:1a:4e:44:ba:5b:16:4d:30:b9:f3:
        b4:74:ce:6e:f2:68:56:58:dd:d8:a1:fd:54:05:f4:23:91:85:
        c9:f9
-----BEGIN CERTIFICATE-----
MIIEmzCCBASgAwIBAgIEQoctTDANBgkqhkiG9w0BAQUFADCBwzELMAkGA1UEBhMC
VVMxFDASBgNVBAoTC0VudHJ1c3QubmV0MTswOQYDVQQLEzJ3d3cuZW50cnVzdC5u
ZXQvQ1BTIGluY29ycC4gYnkgcmVmLiAobGltaXRzIGxpYWIuKTElMCMGA1UECxMc
KGMpIDE5OTkgRW50cnVzdC5uZXQgTGltaXRlZDE6MDgGA1UEAxMxRW50cnVzdC5u
ZXQgU2VjdXJlIFNlcnZlciBDZXJ0aWZpY2F0aW9uIEF1dGhvcml0eTAeFw0wNzAx
MDUxOTIwMzlaFw0xNzAxMDUxOTUwMzlaMIGwMQswCQYDVQQGEwJVUzEWMBQGA1UE
ChMNRW50cnVzdCwgSW5jLjE5MDcGA1UECxMwd3d3LmVudHJ1c3QubmV0L0NQUyBp
cyBpbmNvcnBvcmF0ZWQgYnkgcmVmZXJlbmNlMR8wHQYDVQQLExYoYykgMjAwNiBF
bnRydXN0LCBJbmMuMS0wKwYDVQQDEyRFbnRydXN0IFJvb3QgQ2VydGlmaWNhdGlv
biBBdXRob3JpdHkwggEiMA0GCSqGSIb3DQEBAQUAA4IBDwAwggEKAoIBAQC2lbZD
QvrGbSpvSN+UTDlXBe7DeRFBaDbt7P6aAY+hOCj89xBGZi5NHhqxGk7G0cCViLDJ
/zGLMwPbt4N7PiCEXu2yViin+OC5QHE3xctHDpcqaMAilWIV20fZ9dAr/4JLya0+
3kzbkIBQPwmKhADsMAo9GM37/SpZmiOVFyxFnh9uQ3ltDFyY/kinxSNHXF79buce
tPZoRdGGg1uiio2x4ymA/iVxiK2+vI+sUpZLqlGN5BMxGehOTZ/brLNq1bw5VHHK
enp/kN19HYDZgbtZJsIR/uaT4veA5GX7NDcOKYBwTa84hi6ef1evnheu6xzLKCFf
thzY56IEIvnT2tjLAgMBAAGjggEnMIIBIzAOBgNVHQ8BAf8EBAMCAQYwDwYDVR0T
AQH/BAUwAwEB/zAzBggrBgEFBQcBAQQnMCUwIwYIKwYBBQUHMAGGF2h0dHA6Ly9v
Y3NwLmVudHJ1c3QubmV0MDMGA1UdHwQsMCowKKAmoCSGImh0dHA6Ly9jcmwuZW50
cnVzdC5uZXQvc2VydmVyMS5jcmwwOwYDVR0gBDQwMjAwBgRVHSAAMCgwJgYIKwYB
BQUHAgEWGmh0dHA6Ly93d3cuZW50cnVzdC5uZXQvQ1BTMB0GA1UdDgQWBBRokORn
pKZTgMeGZqTx90tD+4S9bTAfBgNVHSMEGDAWgBTwF2ITVT2z/woAa/tQhJfz7WLQ
GjAZBgkqhkiG9n0HQQAEDDAKGwRWNy4xAwIAgTANBgkqhkiG9w0BAQUFAAOBgQAM
sIR8LRP+mj2/GAWVPSBIoxaBhxVQFaSIjZ9g1Dpv6y1uOoakqdLBnYl6CBykLbNH
jg9kSm9mA4M/TzSUNqopbYuNAiIrjM13pXCVhpHRtr9SvjNqa5n5b+ESvgTLM7/1
EhpORLpbFk0wufO0dM5u8mhWWN3Yof1UBfQjkYXJ+Q==
-----END CERTIFICATE-----
