Certificate:
    Data:
        Version: 3 (0x2)
        Serial Number: 0 (0x0)
        Signature Algorithm: md5WithRSAEncryption
        Issuer: C=IL, ST=Israel, L=Eilat, O=StartCom Ltd., OU=CA Authority Dep., CN=Free SSL Certification Authority/emailAddress=admin@startcom.org
        Validity
            Not Before: Mar 17 17:37:48 2005 GMT
            Not After : Mar 10 17:37:48 2035 GMT
        Subject: C=IL, ST=Israel, L=Eilat, O=StartCom Ltd., OU=CA Authority Dep., CN=Free SSL Certification Authority/emailAddress=admin@startcom.org
        Subject Public Key Info:
            Public Key Algorithm: rsaEncryption
            RSA Public Key: (1024 bit)
                Modulus (1024 bit):
                    00:ed:84:60:00:23:9e:c8:4a:51:29:27:de:3a:a1:
                    39:b5:69:ab:09:b2:2f:34:fd:61:dc:3d:d3:b0:cf:
                    b1:d7:c2:c4:c2:b1:e4:96:56:c4:be:aa:14:0e:e7:
                    cc:3a:50:c8:3a:62:9d:c3:a3:ac:59:7b:8e:ee:55:
                    1a:1c:47:be:a3:97:39:b3:b5:ef:23:2c:08:e8:d8:
                    af:73:2f:b9:c9:83:e8:ed:00:0f:c8:75:a5:2f:34:
                    4c:18:e8:76:88:23:49:8a:db:b6:ed:68:da:c3:b5:
                    62:29:4c:a5:4b:b7:98:b4:09:14:10:a0:f8:fe:62:
                    76:22:15:0b:a4:d6:08:2f:35
                Exponent: 65537 (0x10001)
        X509v3 extensions:
            X509v3 Basic Constraints: critical
                CA:TRUE
            X509v3 Key Usage: 
                Digital Signature, Non Repudiation, Key Encipherment, Certificate Sign, CRL Sign
            X509v3 Subject Key Identifier: 
                1C:89:C3:96:CC:BD:FE:32:D5:0D:8C:81:31:B6:98:9D:8D:28:64:8D
            X509v3 Authority Key Identifier: 
                keyid:1C:89:C3:96:CC:BD:FE:32:D5:0D:8C:81:31:B6:98:9D:8D:28:64:8D
                DirName:/C=IL/ST=Israel/L=Eilat/O=StartCom Ltd./OU=CA Authority Dep./CN=Free SSL Certification Authority/emailAddress=admin@startcom.org
                serial:00

            X509v3 Subject Alternative Name: 
                email:admin@startcom.org
            X509v3 Issuer Alternative Name: 
                email:admin@startcom.org
            Netscape Cert Type: 
                SSL CA, S/MIME CA, Object Signing CA
            Netscape Comment: 
                Free SSL Certification Authority
            Netscape CA Revocation Url: 
                http://cert.startcom.org/ca-crl.crl
            Netscape Base Url: 
                http://cert.startcom.org/
            Netscape CA Policy Url: 
                http://cert.startcom.org/index.php?app=111
    Signature Algorithm: md5WithRSAEncryption
        6c:71:25:e1:9e:34:91:21:ef:db:6c:bd:01:08:56:8f:88:d8:
        41:3a:53:f5:72:df:27:57:4b:76:84:f7:68:a4:fe:eb:3f:09:
        7e:28:b8:57:ea:1f:c1:aa:e2:ff:96:9f:49:99:e6:b2:95:73:
        96:c6:48:c7:5e:8d:07:72:56:f8:83:8f:9f:77:af:29:d3:45:
        0e:a4:ee:b0:36:74:2d:f0:cd:98:23:7b:37:4b:da:fe:51:98:
        c4:1e:34:3c:88:fd:99:3b:50:a7:c1:8b:33:c7:c2:52:16:12:
        95:53:65:22:ef:ba:8b:ce:62:db:70:23:b1:80:df:1a:20:38:
        e7:7e
SHA1 Fingerprint=95:E6:AD:F8:D7:71:46:02:4D:D5:6A:21:B2:E7:3F:CD:F2:3B:35:FF
-----BEGIN CERTIFICATE-----
MIIFFjCCBH+gAwIBAgIBADANBgkqhkiG9w0BAQQFADCBsDELMAkGA1UEBhMCSUwx
DzANBgNVBAgTBklzcmFlbDEOMAwGA1UEBxMFRWlsYXQxFjAUBgNVBAoTDVN0YXJ0
Q29tIEx0ZC4xGjAYBgNVBAsTEUNBIEF1dGhvcml0eSBEZXAuMSkwJwYDVQQDEyBG
cmVlIFNTTCBDZXJ0aWZpY2F0aW9uIEF1dGhvcml0eTEhMB8GCSqGSIb3DQEJARYS
YWRtaW5Ac3RhcnRjb20ub3JnMB4XDTA1MDMxNzE3Mzc0OFoXDTM1MDMxMDE3Mzc0
OFowgbAxCzAJBgNVBAYTAklMMQ8wDQYDVQQIEwZJc3JhZWwxDjAMBgNVBAcTBUVp
bGF0MRYwFAYDVQQKEw1TdGFydENvbSBMdGQuMRowGAYDVQQLExFDQSBBdXRob3Jp
dHkgRGVwLjEpMCcGA1UEAxMgRnJlZSBTU0wgQ2VydGlmaWNhdGlvbiBBdXRob3Jp
dHkxITAfBgkqhkiG9w0BCQEWEmFkbWluQHN0YXJ0Y29tLm9yZzCBnzANBgkqhkiG
9w0BAQEFAAOBjQAwgYkCgYEA7YRgACOeyEpRKSfeOqE5tWmrCbIvNP1h3D3TsM+x
18LEwrHkllbEvqoUDufMOlDIOmKdw6OsWXuO7lUaHEe+o5c5s7XvIywI6Nivcy+5
yYPo7QAPyHWlLzRMGOh2iCNJitu27Wjaw7ViKUylS7eYtAkUEKD4/mJ2IhULpNYI
LzUCAwEAAaOCAjwwggI4MA8GA1UdEwEB/wQFMAMBAf8wCwYDVR0PBAQDAgHmMB0G
A1UdDgQWBBQcicOWzL3+MtUNjIExtpidjShkjTCB3QYDVR0jBIHVMIHSgBQcicOW
zL3+MtUNjIExtpidjShkjaGBtqSBszCBsDELMAkGA1UEBhMCSUwxDzANBgNVBAgT
BklzcmFlbDEOMAwGA1UEBxMFRWlsYXQxFjAUBgNVBAoTDVN0YXJ0Q29tIEx0ZC4x
GjAYBgNVBAsTEUNBIEF1dGhvcml0eSBEZXAuMSkwJwYDVQQDEyBGcmVlIFNTTCBD
ZXJ0aWZpY2F0aW9uIEF1dGhvcml0eTEhMB8GCSqGSIb3DQEJARYSYWRtaW5Ac3Rh
cnRjb20ub3JnggEAMB0GA1UdEQQWMBSBEmFkbWluQHN0YXJ0Y29tLm9yZzAdBgNV
HRIEFjAUgRJhZG1pbkBzdGFydGNvbS5vcmcwEQYJYIZIAYb4QgEBBAQDAgAHMC8G
CWCGSAGG+EIBDQQiFiBGcmVlIFNTTCBDZXJ0aWZpY2F0aW9uIEF1dGhvcml0eTAy
BglghkgBhvhCAQQEJRYjaHR0cDovL2NlcnQuc3RhcnRjb20ub3JnL2NhLWNybC5j
cmwwKAYJYIZIAYb4QgECBBsWGWh0dHA6Ly9jZXJ0LnN0YXJ0Y29tLm9yZy8wOQYJ
YIZIAYb4QgEIBCwWKmh0dHA6Ly9jZXJ0LnN0YXJ0Y29tLm9yZy9pbmRleC5waHA/
YXBwPTExMTANBgkqhkiG9w0BAQQFAAOBgQBscSXhnjSRIe/bbL0BCFaPiNhBOlP1
ct8nV0t2hPdopP7rPwl+KLhX6h/BquL/lp9JmeaylXOWxkjHXo0Hclb4g4+fd68p
00UOpO6wNnQt8M2YI3s3S9r+UZjEHjQ8iP2ZO1CnwYszx8JSFhKVU2Ui77qLzmLb
cCOxgN8aIDjnfg==
-----END CERTIFICATE-----
