Certificate:
    Data:
        Version: 1 (0x0)
        Serial Number: 1 (0x1)
        Signature Algorithm: sha1WithRSAEncryption
        Issuer: L=ValiCert Validation Network, O=ValiCert, Inc., OU=ValiCert Class 1 Policy Validation Authority, CN=http://www.valicert.com//emailAddress=info@valicert.com
        Validity
            Not Before: Jun 25 22:23:48 1999 GMT
            Not After : Jun 25 22:23:48 2019 GMT
        Subject: L=ValiCert Validation Network, O=ValiCert, Inc., OU=ValiCert Class 1 Policy Validation Authority, CN=http://www.valicert.com//emailAddress=info@valicert.com
        Subject Public Key Info:
            Public Key Algorithm: rsaEncryption
            RSA Public Key: (1024 bit)
                Modulus (1024 bit):
                    00:d8:59:82:7a:89:b8:96:ba:a6:2f:68:6f:58:2e:
                    a7:54:1c:06:6e:f4:ea:8d:48:bc:31:94:17:f0:f3:
                    4e:bc:b2:b8:35:92:76:b0:d0:a5:a5:01:d7:00:03:
                    12:22:19:08:f8:ff:11:23:9b:ce:07:f5:bf:69:1a:
                    26:fe:4e:e9:d1:7f:9d:2c:40:1d:59:68:6e:a6:f8:
                    58:b0:9d:1a:8f:d3:3f:f1:dc:19:06:81:a8:0e:e0:
                    3a:dd:c8:53:45:09:06:e6:0f:70:c3:fa:40:a6:0e:
                    e2:56:05:0f:18:4d:fc:20:82:d1:73:55:74:8d:76:
                    72:a0:1d:9d:1d:c0:dd:3f:71
                Exponent: 65537 (0x10001)
    Signature Algorithm: sha1WithRSAEncryption
        50:68:3d:49:f4:2c:1c:06:94:df:95:60:7f:96:7b:17:fe:4f:
        71:ad:64:c8:dd:77:d2:ef:59:55:e8:3f:e8:8e:05:2a:21:f2:
        07:d2:b5:a7:52:fe:9c:b1:b6:e2:5b:77:17:40:ea:72:d6:23:
        cb:28:81:32:c3:00:79:18:ec:59:17:89:c9:c6:6a:1e:71:c9:
        fd:b7:74:a5:25:45:69:c5:48:ab:19:e1:45:8a:25:6b:19:ee:
        e5:bb:12:f5:7f:f7:a6:8d:51:c3:f0:9d:74:b7:a9:3e:a0:a5:
        ff:b6:49:03:13:da:22:cc:ed:71:82:2b:99:cf:3a:b7:f5:2d:
        72:c8
SHA1 Fingerprint=E5:DF:74:3C:B6:01:C4:9B:98:43:DC:AB:8C:E8:6A:81:10:9F:E4:8E
-----BEGIN CERTIFICATE-----
MIIC5zCCAlACAQEwDQYJKoZIhvcNAQEFBQAwgbsxJDAiBgNVBAcTG1ZhbGlDZXJ0
IFZhbGlkYXRpb24gTmV0d29yazEXMBUGA1UEChMOVmFsaUNlcnQsIEluYy4xNTAz
BgNVBAsTLFZhbGlDZXJ0IENsYXNzIDEgUG9saWN5IFZhbGlkYXRpb24gQXV0aG9y
aXR5MSEwHwYDVQQDExhodHRwOi8vd3d3LnZhbGljZXJ0LmNvbS8xIDAeBgkqhkiG
9w0BCQEWEWluZm9AdmFsaWNlcnQuY29tMB4XDTk5MDYyNTIyMjM0OFoXDTE5MDYy
NTIyMjM0OFowgbsxJDAiBgNVBAcTG1ZhbGlDZXJ0IFZhbGlkYXRpb24gTmV0d29y
azEXMBUGA1UEChMOVmFsaUNlcnQsIEluYy4xNTAzBgNVBAsTLFZhbGlDZXJ0IENs
YXNzIDEgUG9saWN5IFZhbGlkYXRpb24gQXV0aG9yaXR5MSEwHwYDVQQDExhodHRw
Oi8vd3d3LnZhbGljZXJ0LmNvbS8xIDAeBgkqhkiG9w0BCQEWEWluZm9AdmFsaWNl
cnQuY29tMIGfMA0GCSqGSIb3DQEBAQUAA4GNADCBiQKBgQDYWYJ6ibiWuqYvaG9Y
LqdUHAZu9OqNSLwxlBfw8068srg1knaw0KWlAdcAAxIiGQj4/xEjm84H9b9pGib+
TunRf50sQB1ZaG6m+FiwnRqP0z/x3BkGgagO4DrdyFNFCQbmD3DD+kCmDuJWBQ8Y
TfwggtFzVXSNdnKgHZ0dwN0/cQIDAQABMA0GCSqGSIb3DQEBBQUAA4GBAFBoPUn0
LBwGlN+VYH+Wexf+T3GtZMjdd9LvWVXoP+iOBSoh8gfStadS/pyxtuJbdxdA6nLW
I8sogTLDAHkY7FkXicnGah5xyf23dKUlRWnFSKsZ4UWKJWsZ7uW7EvV/96aNUcPw
nXS3qT6gpf+2SQMT2iLM7XGCK5nPOrf1LXLI
-----END CERTIFICATE-----
