Certificate:
    Data:
        Version: 1 (0x0)
        Serial Number: 0 (0x0)
        Signature Algorithm: md5WithRSAEncryption
        Issuer: C=ES, ST=BARCELONA, L=BARCELONA, O=IPS Seguridad CA, OU=Certificaciones, CN=IPS SERVIDORES/emailAddress=ips@mail.ips.es
        Validity
            Not Before: Jan  1 23:21:07 1998 GMT
            Not After : Dec 29 23:21:07 2009 GMT
        Subject: C=ES, ST=BARCELONA, L=BARCELONA, O=IPS Seguridad CA, OU=Certificaciones, CN=IPS SERVIDORES/emailAddress=ips@mail.ips.es
        Subject Public Key Info:
            Public Key Algorithm: rsaEncryption
            RSA Public Key: (1024 bit)
                Modulus (1024 bit):
                    00:ac:4f:52:74:9f:39:ea:8e:dc:25:c4:bc:98:5d:
                    98:64:24:09:3c:21:b3:cc:19:b5:8e:94:8e:87:d1:
                    f8:37:3e:a1:c8:2d:58:a4:80:35:5b:a1:75:6c:1d:
                    45:0c:1f:61:63:6a:5e:6f:9b:0a:4c:c1:c8:b8:61:
                    23:35:81:ff:fe:ac:78:70:2d:68:e1:3a:07:98:95:
                    02:54:dd:cd:23:b7:80:53:d7:c8:37:45:72:06:24:
                    12:ba:13:61:21:8a:6e:75:28:e0:c5:0f:34:fd:36:
                    d8:45:7f:e1:b8:36:ef:b3:e1:c6:20:8e:e8:b4:38:
                    bc:e1:3e:f6:11:de:8c:9d:01
                Exponent: 65537 (0x10001)
    Signature Algorithm: md5WithRSAEncryption
        2c:f3:c3:79:58:24:de:c6:3b:d1:e0:42:69:b8:ee:64:b3:3d:
        62:01:b9:b3:84:df:23:7d:dd:98:cf:10:a9:fe:00:d8:22:96:
        05:13:07:54:57:c5:a7:de:cb:d9:b8:88:42:f6:99:db:14:77:
        1f:b6:fe:25:3d:e1:a2:3e:03:a9:81:d2:2d:6c:47:f5:96:46:
        8c:22:ab:c8:cc:0d:0e:97:5e:8b:41:b4:3b:c4:0a:06:40:1d:
        dd:46:f4:01:dd:ba:82:2e:3c:3d:78:70:9e:7c:18:d0:ab:f8:
        b8:77:07:46:71:f1:ca:0b:63:5c:6a:f9:72:94:d5:01:4f:a0:
        db:42
SHA1 Fingerprint=24:BA:6D:6C:8A:5B:58:37:A4:8D:B5:FA:E9:19:EA:67:5C:94:D2:17
-----BEGIN CERTIFICATE-----
MIICtzCCAiACAQAwDQYJKoZIhvcNAQEEBQAwgaMxCzAJBgNVBAYTAkVTMRIwEAYD
VQQIEwlCQVJDRUxPTkExEjAQBgNVBAcTCUJBUkNFTE9OQTEZMBcGA1UEChMQSVBT
IFNlZ3VyaWRhZCBDQTEYMBYGA1UECxMPQ2VydGlmaWNhY2lvbmVzMRcwFQYDVQQD
Ew5JUFMgU0VSVklET1JFUzEeMBwGCSqGSIb3DQEJARYPaXBzQG1haWwuaXBzLmVz
MB4XDTk4MDEwMTIzMjEwN1oXDTA5MTIyOTIzMjEwN1owgaMxCzAJBgNVBAYTAkVT
MRIwEAYDVQQIEwlCQVJDRUxPTkExEjAQBgNVBAcTCUJBUkNFTE9OQTEZMBcGA1UE
ChMQSVBTIFNlZ3VyaWRhZCBDQTEYMBYGA1UECxMPQ2VydGlmaWNhY2lvbmVzMRcw
FQYDVQQDEw5JUFMgU0VSVklET1JFUzEeMBwGCSqGSIb3DQEJARYPaXBzQG1haWwu
aXBzLmVzMIGfMA0GCSqGSIb3DQEBAQUAA4GNADCBiQKBgQCsT1J0nznqjtwlxLyY
XZhkJAk8IbPMGbWOlI6H0fg3PqHILVikgDVboXVsHUUMH2Fjal5vmwpMwci4YSM1
gf/+rHhwLWjhOgeYlQJU3c0jt4BT18g3RXIGJBK6E2Ehim51KODFDzT9NthFf+G4
Nu+z4cYgjui0OLzhPvYR3oydAQIDAQABMA0GCSqGSIb3DQEBBAUAA4GBACzzw3lY
JN7GO9HgQmm47mSzPWIBubOE3yN93ZjPEKn+ANgilgUTB1RXxafey9m4iEL2mdsU
dx+2/iU94aI+A6mB0i1sR/WWRowiq8jMDQ6XXotBtDvECgZAHd1G9AHduoIuPD14
cJ58GNCr+Lh3B0Zx8coLY1xq+XKU1QFPoNtC
-----END CERTIFICATE-----
