Certificate:
    Data:
        Version: 3 (0x2)
        Serial Number: 105 (0x69)
        Signature Algorithm: md5WithRSAEncryption
        Issuer: C=HU, L=Budapest, O=NetLock Halozatbiztonsagi Kft., OU=Tanusitvanykiadok, CN=NetLock Uzleti (Class B) Tanusitvanykiado
        Validity
            Not Before: Feb 25 14:10:22 1999 GMT
            Not After : Feb 20 14:10:22 2019 GMT
        Subject: C=HU, L=Budapest, O=NetLock Halozatbiztonsagi Kft., OU=Tanusitvanykiadok, CN=NetLock Uzleti (Class B) Tanusitvanykiado
        Subject Public Key Info:
            Public Key Algorithm: rsaEncryption
            RSA Public Key: (1024 bit)
                Modulus (1024 bit):
                    00:b1:ea:04:ec:20:a0:23:c2:8f:38:60:cf:c7:46:
                    b3:d5:1b:fe:fb:b9:99:9e:04:dc:1c:7f:8c:4a:81:
                    98:ee:a4:d4:ca:8a:17:b9:22:7f:83:0a:75:4c:9b:
                    c0:69:d8:64:39:a3:ed:92:a3:fd:5b:5c:74:1a:c0:
                    47:ca:3a:69:76:9a:ba:e2:44:17:fc:4c:a3:d5:fe:
                    b8:97:88:af:88:03:89:1f:a4:f2:04:3e:c8:07:0b:
                    e6:f9:b3:2f:7a:62:14:09:46:14:ca:64:f5:8b:80:
                    b5:62:a8:d8:6b:d6:71:93:2d:b3:bf:09:54:58:ed:
                    06:eb:a8:7b:dc:43:b1:a1:69
                Exponent: 65537 (0x10001)
        X509v3 extensions:
            X509v3 Basic Constraints: critical
                CA:TRUE, pathlen:4
            X509v3 Key Usage: critical
                Certificate Sign, CRL Sign
            Netscape Cert Type: 
                SSL CA, S/MIME CA, Object Signing CA
            Netscape Comment: 
                FIGYELEM! Ezen tanusitvany a NetLock Kft. Altalanos Szolgaltatasi Felteteleiben leirt eljarasok alapjan keszult. A hitelesites folyamatat a NetLock Kft. termekfelelosseg-biztositasa vedi. A digitalis alairas elfogadasanak feltetele az eloirt ellenorzesi eljaras megtetele. Az eljaras leirasa megtalalhato a NetLock Kft. Internet honlapjan a https://www.netlock.net/docs cimen vagy kerheto az ellenorzes@netlock.net e-mail cimen. IMPORTANT! The issuance and the use of this certificate is subject to the NetLock CPS available at https://www.netlock.net/docs or by e-mail at cps@netlock.net.
    Signature Algorithm: md5WithRSAEncryption
        04:db:ae:8c:17:af:f8:0e:90:31:4e:cd:3e:09:c0:6d:3a:b0:
        f8:33:4c:47:4c:e3:75:88:10:97:ac:b0:38:15:91:c6:29:96:
        cc:21:c0:6d:3c:a5:74:cf:d8:82:a5:39:c3:65:e3:42:70:bb:
        22:90:e3:7d:db:35:76:e1:a0:b5:da:9f:70:6e:93:1a:30:39:
        1d:30:db:2e:e3:7c:b2:91:b2:d1:37:29:fa:b9:d6:17:5c:47:
        4f:e3:1d:38:eb:9f:d5:7b:95:a8:28:9e:15:4a:d1:d1:d0:2b:
        00:97:a0:e2:92:36:2b:63:ac:58:01:6b:33:29:50:86:83:f1:
        01:48
SHA1 Fingerprint=87:9F:4B:EE:05:DF:98:58:3B:E3:60:D6:33:E7:0D:3F:FE:98:71:AF
-----BEGIN CERTIFICATE-----
MIIFSzCCBLSgAwIBAgIBaTANBgkqhkiG9w0BAQQFADCBmTELMAkGA1UEBhMCSFUx
ETAPBgNVBAcTCEJ1ZGFwZXN0MScwJQYDVQQKEx5OZXRMb2NrIEhhbG96YXRiaXp0
b25zYWdpIEtmdC4xGjAYBgNVBAsTEVRhbnVzaXR2YW55a2lhZG9rMTIwMAYDVQQD
EylOZXRMb2NrIFV6bGV0aSAoQ2xhc3MgQikgVGFudXNpdHZhbnlraWFkbzAeFw05
OTAyMjUxNDEwMjJaFw0xOTAyMjAxNDEwMjJaMIGZMQswCQYDVQQGEwJIVTERMA8G
A1UEBxMIQnVkYXBlc3QxJzAlBgNVBAoTHk5ldExvY2sgSGFsb3phdGJpenRvbnNh
Z2kgS2Z0LjEaMBgGA1UECxMRVGFudXNpdHZhbnlraWFkb2sxMjAwBgNVBAMTKU5l
dExvY2sgVXpsZXRpIChDbGFzcyBCKSBUYW51c2l0dmFueWtpYWRvMIGfMA0GCSqG
SIb3DQEBAQUAA4GNADCBiQKBgQCx6gTsIKAjwo84YM/HRrPVG/77uZmeBNwcf4xK
gZjupNTKihe5In+DCnVMm8Bp2GQ5o+2So/1bXHQawEfKOml2mrriRBf8TKPV/riX
iK+IA4kfpPIEPsgHC+b5sy96YhQJRhTKZPWLgLViqNhr1nGTLbO/CVRY7QbrqHvc
Q7GhaQIDAQABo4ICnzCCApswEgYDVR0TAQH/BAgwBgEB/wIBBDAOBgNVHQ8BAf8E
BAMCAAYwEQYJYIZIAYb4QgEBBAQDAgAHMIICYAYJYIZIAYb4QgENBIICURaCAk1G
SUdZRUxFTSEgRXplbiB0YW51c2l0dmFueSBhIE5ldExvY2sgS2Z0LiBBbHRhbGFu
b3MgU3pvbGdhbHRhdGFzaSBGZWx0ZXRlbGVpYmVuIGxlaXJ0IGVsamFyYXNvayBh
bGFwamFuIGtlc3p1bHQuIEEgaGl0ZWxlc2l0ZXMgZm9seWFtYXRhdCBhIE5ldExv
Y2sgS2Z0LiB0ZXJtZWtmZWxlbG9zc2VnLWJpenRvc2l0YXNhIHZlZGkuIEEgZGln
aXRhbGlzIGFsYWlyYXMgZWxmb2dhZGFzYW5hayBmZWx0ZXRlbGUgYXogZWxvaXJ0
IGVsbGVub3J6ZXNpIGVsamFyYXMgbWVndGV0ZWxlLiBBeiBlbGphcmFzIGxlaXJh
c2EgbWVndGFsYWxoYXRvIGEgTmV0TG9jayBLZnQuIEludGVybmV0IGhvbmxhcGph
biBhIGh0dHBzOi8vd3d3Lm5ldGxvY2submV0L2RvY3MgY2ltZW4gdmFneSBrZXJo
ZXRvIGF6IGVsbGVub3J6ZXNAbmV0bG9jay5uZXQgZS1tYWlsIGNpbWVuLiBJTVBP
UlRBTlQhIFRoZSBpc3N1YW5jZSBhbmQgdGhlIHVzZSBvZiB0aGlzIGNlcnRpZmlj
YXRlIGlzIHN1YmplY3QgdG8gdGhlIE5ldExvY2sgQ1BTIGF2YWlsYWJsZSBhdCBo
dHRwczovL3d3dy5uZXRsb2NrLm5ldC9kb2NzIG9yIGJ5IGUtbWFpbCBhdCBjcHNA
bmV0bG9jay5uZXQuMA0GCSqGSIb3DQEBBAUAA4GBAATbrowXr/gOkDFOzT4JwG06
sPgzTEdM43WIEJessDgVkcYplswhwG08pXTP2IKlOcNl40JwuyKQ433bNXbhoLXa
n3BukxowOR0w2y7jfLKRstE3Kfq51hdcR0/jHTjrn9V7lagonhVK0dHQKwCXoOKS
NitjrFgBazMpUIaD8QFI
-----END CERTIFICATE-----
